Certificate:
    Data:
        Version: 3 (0x2)
        Serial Number: 2 (0x2)
        Signature Algorithm: sha256WithRSAEncryption
        Issuer: O=Test Org, CN=Test Org rauc CA Development
        Validity
            Not Before: Jan  1 00:00:00 1970 GMT
            Not After : Dec 31 23:59:59 9999 GMT
        Subject: O=Test Org, CN=Test Org Development-1
        Subject Public Key Info:
            Public Key Algorithm: rsaEncryption
                Public-Key: (2048 bit)
                Modulus:
                    00:dd:cf:4b:18:76:15:7e:e6:3e:fb:72:36:ac:1d:
                    96:7f:ea:f0:69:17:57:3a:6e:e4:bf:68:ec:48:e1:
                    83:e2:99:9c:8a:2b:15:ba:ee:87:2f:b7:87:f6:08:
                    54:5e:7c:6b:67:fb:a2:3d:2a:7d:52:d3:c4:84:07:
                    74:2d:6c:8a:24:78:f0:22:26:5b:dd:52:c8:8f:d0:
                    37:d4:4e:ce:61:b0:f2:f2:82:50:f1:35:8f:7d:05:
                    86:38:02:d5:0a:44:80:e2:71:4e:d3:25:88:9d:37:
                    d5:8d:9a:52:06:0f:60:6c:46:9c:91:6b:05:5f:ce:
                    cd:92:42:f7:95:2c:43:d9:92:3a:bf:9a:af:d8:69:
                    67:28:26:fd:16:59:2f:89:1d:5b:b3:7f:40:b8:0f:
                    7e:8b:21:65:e3:b4:6c:dc:43:c2:86:52:db:34:8c:
                    36:38:72:e3:54:43:e0:b1:15:0c:15:ef:f4:59:e0:
                    84:eb:ee:e9:8e:8f:14:0e:ac:3d:d9:07:95:5f:d5:
                    9f:d8:bb:e7:c5:c3:eb:5f:de:b4:68:3e:84:ea:9b:
                    80:8c:30:f3:62:26:5b:e7:13:a7:55:3c:17:ba:c0:
                    95:bb:63:21:1d:28:4e:42:be:de:44:38:37:71:cc:
                    30:ac:9d:3e:ca:9f:61:b4:19:0f:6e:86:ed:05:84:
                    45:3d
                Exponent: 65537 (0x10001)
        X509v3 extensions:
            X509v3 Subject Key Identifier: 
                E3:2A:85:46:A5:57:7C:CD:34:41:F0:7B:D4:75:E8:CB:F5:D6:13:CB
            X509v3 Authority Key Identifier: 
                keyid:FC:13:6E:2B:E0:34:8F:31:25:1D:F4:9F:A4:D1:8F:B4:98:0A:66:4F
                DirName:/O=Test Org/CN=Test Org rauc CA Development
                serial:01
            X509v3 Basic Constraints: 
                CA:FALSE
    Signature Algorithm: sha256WithRSAEncryption
    Signature Value:
        7e:a7:22:e5:5d:80:0b:71:ad:b4:4b:4f:3a:8a:3b:f2:f5:f7:
        f6:6e:f7:97:84:50:21:44:ef:fe:98:7c:c3:9f:5c:1d:64:b3:
        c2:7b:a6:0f:66:ef:2e:ef:87:eb:70:ec:92:f6:56:40:a7:18:
        3c:0e:cf:8a:9a:f9:d6:4c:23:93:65:2c:42:2e:f6:e4:3d:9b:
        d1:e2:0f:4b:79:ff:f5:64:b5:03:f3:3a:7b:4a:3c:24:6e:da:
        c7:b1:35:0d:16:f0:74:a7:e7:44:20:81:02:49:ca:ef:ee:61:
        26:0f:f6:83:78:a1:d9:cf:14:73:64:d4:be:c3:11:8b:79:c5:
        5a:56:25:28:08:eb:10:38:6e:a6:41:5f:f7:4b:85:42:82:5e:
        a5:cc:9e:9f:32:ad:95:69:a8:86:cb:b9:37:f7:31:4b:45:91:
        e0:d7:3f:23:0b:1a:67:ec:3d:10:91:2b:58:26:2d:2f:75:d9:
        fc:20:1c:09:53:a0:33:10:21:8c:e5:00:c0:ca:e7:5a:16:1f:
        e0:4c:ed:77:41:d5:95:cf:18:ed:dc:16:ee:4a:3e:1a:05:83:
        81:43:d6:f0:a4:25:80:97:33:eb:fd:bf:8e:3d:6d:b3:6c:35:
        7b:37:10:56:32:1e:2e:ff:0c:e3:b4:32:7c:85:e1:06:69:55:
        84:1d:56:75
-----BEGIN CERTIFICATE-----
MIIDfTCCAmWgAwIBAgIBAjANBgkqhkiG9w0BAQsFADA6MREwDwYDVQQKDAhUZXN0
IE9yZzElMCMGA1UEAwwcVGVzdCBPcmcgcmF1YyBDQSBEZXZlbG9wbWVudDAgFw03
MDAxMDEwMDAwMDBaGA85OTk5MTIzMTIzNTk1OVowNDERMA8GA1UECgwIVGVzdCBP
cmcxHzAdBgNVBAMMFlRlc3QgT3JnIERldmVsb3BtZW50LTEwggEiMA0GCSqGSIb3
DQEBAQUAA4IBDwAwggEKAoIBAQDdz0sYdhV+5j77cjasHZZ/6vBpF1c6buS/aOxI
4YPimZyKKxW67ocvt4f2CFRefGtn+6I9Kn1S08SEB3QtbIokePAiJlvdUsiP0DfU
Ts5hsPLyglDxNY99BYY4AtUKRIDicU7TJYidN9WNmlIGD2BsRpyRawVfzs2SQveV
LEPZkjq/mq/YaWcoJv0WWS+JHVuzf0C4D36LIWXjtGzcQ8KGUts0jDY4cuNUQ+Cx
FQwV7/RZ4ITr7umOjxQOrD3ZB5Vf1Z/Yu+fFw+tf3rRoPoTqm4CMMPNiJlvnE6dV
PBe6wJW7YyEdKE5Cvt5EODdxzDCsnT7Kn2G0GQ9uhu0FhEU9AgMBAAGjgZEwgY4w
HQYDVR0OBBYEFOMqhUalV3zNNEHwe9R16Mv11hPLMGIGA1UdIwRbMFmAFPwTbivg
NI8xJR30n6TRj7SYCmZPoT6kPDA6MREwDwYDVQQKDAhUZXN0IE9yZzElMCMGA1UE
AwwcVGVzdCBPcmcgcmF1YyBDQSBEZXZlbG9wbWVudIIBATAJBgNVHRMEAjAAMA0G
CSqGSIb3DQEBCwUAA4IBAQB+pyLlXYALca20S086ijvy9ff2bveXhFAhRO/+mHzD
n1wdZLPCe6YPZu8u74frcOyS9lZApxg8Ds+KmvnWTCOTZSxCLvbkPZvR4g9Lef/1
ZLUD8zp7SjwkbtrHsTUNFvB0p+dEIIECScrv7mEmD/aDeKHZzxRzZNS+wxGLecVa
ViUoCOsQOG6mQV/3S4VCgl6lzJ6fMq2VaaiGy7k39zFLRZHg1z8jCxpn7D0QkStY
Ji0vddn8IBwJU6AzECGM5QDAyudaFh/gTO13QdWVzxjt3BbuSj4aBYOBQ9bwpCWA
lzPr/b+OPW2zbDV7NxBWMh4u/wzjtDJ8heEGaVWEHVZ1
-----END CERTIFICATE-----
