Certificate:
    Data:
        Version: 3 (0x2)
        Serial Number: 1 (0x1)
        Signature Algorithm: sha256WithRSAEncryption
        Issuer: O=Test Org, CN=Test Org rauc CA Development
        Validity
            Not Before: Jan  1 00:00:00 1970 GMT
            Not After : Dec 31 23:59:59 9999 GMT
        Subject: O=Test Org, CN=Test Org rauc CA Development
        Subject Public Key Info:
            Public Key Algorithm: rsaEncryption
                Public-Key: (2048 bit)
                Modulus:
                    00:d7:32:e4:cf:6f:11:9f:30:75:95:61:27:76:43:
                    c2:71:77:88:40:e6:d8:50:0c:25:88:c8:2b:90:8f:
                    9c:85:be:16:a5:9e:09:ee:c3:58:f3:8c:94:39:68:
                    63:b9:4e:79:21:34:81:47:4e:9a:da:c3:de:83:3d:
                    ef:03:fa:71:97:c0:3a:fd:6f:72:7f:02:13:91:b3:
                    23:12:18:fe:f4:4c:54:43:34:f4:cc:1b:ec:cf:a6:
                    6d:db:60:f9:0a:2c:90:12:c7:e8:ec:25:44:e0:00:
                    86:62:95:9c:0e:74:3a:23:27:7b:88:6d:f9:32:bc:
                    2e:b6:6a:56:87:7d:84:65:f7:1f:e0:a1:4b:52:53:
                    dd:1b:17:33:3c:0c:64:1f:72:f7:f3:f2:2e:40:c6:
                    bf:0e:8e:f8:8e:2b:9f:01:d9:db:fa:4d:d7:1b:ef:
                    a5:45:a3:ec:67:37:43:b1:91:6a:94:9f:65:69:f6:
                    3f:5d:b8:94:1c:2c:6b:b1:ca:d0:da:d2:b2:3d:c0:
                    25:8f:27:19:d4:e9:12:1a:e0:71:2b:50:68:9c:06:
                    28:ac:e9:55:a4:d6:6b:4b:e4:ab:b7:22:1d:cc:4f:
                    bc:7b:55:cd:f3:72:04:6e:ad:93:9e:a0:ab:24:cf:
                    23:d4:c5:e5:48:ec:e3:b2:d2:63:a9:99:03:61:d2:
                    15:a5
                Exponent: 65537 (0x10001)
        X509v3 extensions:
            X509v3 Subject Key Identifier: 
                FC:13:6E:2B:E0:34:8F:31:25:1D:F4:9F:A4:D1:8F:B4:98:0A:66:4F
            X509v3 Authority Key Identifier: 
                keyid:FC:13:6E:2B:E0:34:8F:31:25:1D:F4:9F:A4:D1:8F:B4:98:0A:66:4F
                DirName:/O=Test Org/CN=Test Org rauc CA Development
                serial:01
            X509v3 Basic Constraints: 
                CA:TRUE
    Signature Algorithm: sha256WithRSAEncryption
    Signature Value:
        91:8e:0f:ec:84:6d:7f:db:c0:b7:ec:bf:38:8f:d8:0f:28:fa:
        5c:6b:c2:0a:41:86:34:0c:4d:5a:ac:fd:da:13:a9:0c:99:d8:
        a1:35:47:e3:c7:40:f3:df:a5:c4:a9:6e:b1:09:fd:b3:bc:3c:
        d9:f5:43:47:7e:f0:9b:95:4a:c2:95:ea:58:4e:d0:b1:9a:15:
        93:1f:63:11:21:c3:f7:fc:f2:c6:82:00:ce:1a:f9:ee:6a:20:
        84:a3:b9:8e:28:75:60:14:6f:0c:92:db:08:ca:8b:d1:62:c7:
        fa:60:0f:52:20:8b:86:ca:ae:8a:a2:5a:89:53:c8:7f:0b:9d:
        b6:ef:4b:ed:4b:e1:2c:ba:cb:bb:bd:f1:0d:88:2a:a1:e1:73:
        7e:a1:59:28:19:89:d7:a6:77:1f:8d:9a:a7:56:0a:d8:c0:79:
        17:ba:c5:07:dc:7c:03:49:0e:4a:32:a3:b3:62:1c:5b:78:b1:
        79:46:f1:e2:88:43:a5:b5:cd:75:92:47:bd:62:02:b9:91:39:
        e4:a7:86:92:4a:1d:79:3c:ab:c3:f1:27:0e:92:40:25:1c:25:
        e2:4b:a7:79:45:0b:53:61:eb:3e:21:e0:2a:67:e2:ba:15:60:
        f8:f5:35:f2:82:b2:c4:52:84:55:5f:eb:f6:23:0a:e8:f2:9f:
        48:ff:93:85
-----BEGIN CERTIFICATE-----
MIIDhjCCAm6gAwIBAgIBATANBgkqhkiG9w0BAQsFADA6MREwDwYDVQQKDAhUZXN0
IE9yZzElMCMGA1UEAwwcVGVzdCBPcmcgcmF1YyBDQSBEZXZlbG9wbWVudDAgFw03
MDAxMDEwMDAwMDBaGA85OTk5MTIzMTIzNTk1OVowOjERMA8GA1UECgwIVGVzdCBP
cmcxJTAjBgNVBAMMHFRlc3QgT3JnIHJhdWMgQ0EgRGV2ZWxvcG1lbnQwggEiMA0G
CSqGSIb3DQEBAQUAA4IBDwAwggEKAoIBAQDXMuTPbxGfMHWVYSd2Q8Jxd4hA5thQ
DCWIyCuQj5yFvhalngnuw1jzjJQ5aGO5TnkhNIFHTpraw96DPe8D+nGXwDr9b3J/
AhORsyMSGP70TFRDNPTMG+zPpm3bYPkKLJASx+jsJUTgAIZilZwOdDojJ3uIbfky
vC62alaHfYRl9x/goUtSU90bFzM8DGQfcvfz8i5Axr8OjviOK58B2dv6Tdcb76VF
o+xnN0OxkWqUn2Vp9j9duJQcLGuxytDa0rI9wCWPJxnU6RIa4HErUGicBiis6VWk
1mtL5Ku3Ih3MT7x7Vc3zcgRurZOeoKskzyPUxeVI7OOy0mOpmQNh0hWlAgMBAAGj
gZQwgZEwHQYDVR0OBBYEFPwTbivgNI8xJR30n6TRj7SYCmZPMGIGA1UdIwRbMFmA
FPwTbivgNI8xJR30n6TRj7SYCmZPoT6kPDA6MREwDwYDVQQKDAhUZXN0IE9yZzEl
MCMGA1UEAwwcVGVzdCBPcmcgcmF1YyBDQSBEZXZlbG9wbWVudIIBATAMBgNVHRME
BTADAQH/MA0GCSqGSIb3DQEBCwUAA4IBAQCRjg/shG1/28C37L84j9gPKPpca8IK
QYY0DE1arP3aE6kMmdihNUfjx0Dz36XEqW6xCf2zvDzZ9UNHfvCblUrClepYTtCx
mhWTH2MRIcP3/PLGggDOGvnuaiCEo7mOKHVgFG8MktsIyovRYsf6YA9SIIuGyq6K
olqJU8h/C52270vtS+Esusu7vfENiCqh4XN+oVkoGYnXpncfjZqnVgrYwHkXusUH
3HwDSQ5KMqOzYhxbeLF5RvHiiEOltc11kke9YgK5kTnkp4aSSh15PKvD8ScOkkAl
HCXiS6d5RQtTYes+IeAqZ+K6FWD49TXygrLEUoRVX+v2Iwro8p9I/5OF
-----END CERTIFICATE-----
